target datalayout = "e-m:e-p270:32:32-p271:32:32-p272:64:64-i64:64-i128:128-f80:128-n8:16:32:64-S128"
target triple = "x86_64-pc-linux-gnu"

%"class.std::__cxx11::basic_string" = type { %"struct.std::__cxx11::basic_string<char>::_Alloc_hider", i64, %union.anon }
%"struct.std::__cxx11::basic_string<char>::_Alloc_hider" = type { ptr }
%union.anon = type { i64, [8 x i8] }
%"struct.std::_Vector_base" = type { %"struct.std::_Vector_base<jsonnet::internal::FodderElement, std::allocator<jsonnet::internal::FodderElement>>::_Vector_impl" }
%"struct.std::_Vector_base<jsonnet::internal::FodderElement, std::allocator<jsonnet::internal::FodderElement>>::_Vector_impl" = type { %"struct.std::_Vector_base<jsonnet::internal::FodderElement, std::allocator<jsonnet::internal::FodderElement>>::_Vector_impl_data" }
%"struct.std::_Vector_base<jsonnet::internal::FodderElement, std::allocator<jsonnet::internal::FodderElement>>::_Vector_impl_data" = type { ptr, ptr, ptr }
%"class.std::vector" = type { %"struct.std::_Vector_base" }
%"struct.jsonnet::internal::LocationRange" = type { %"class.std::__cxx11::basic_string", %"struct.jsonnet::internal::Location", %"struct.jsonnet::internal::Location" }
%"struct.jsonnet::internal::Location" = type { i64, i64 }
%"struct.jsonnet::internal::AST" = type { ptr, %"struct.jsonnet::internal::LocationRange", i32, %"class.std::vector", %"class.std::vector.40" }
%"class.std::vector.40" = type { %"struct.std::_Vector_base.41" }
%"struct.std::_Vector_base.41" = type { %"struct.std::_Vector_base<const jsonnet::internal::Identifier *, std::allocator<const jsonnet::internal::Identifier *>>::_Vector_impl" }
%"struct.std::_Vector_base<const jsonnet::internal::Identifier *, std::allocator<const jsonnet::internal::Identifier *>>::_Vector_impl" = type { %"struct.std::_Vector_base<const jsonnet::internal::Identifier *, std::allocator<const jsonnet::internal::Identifier *>>::_Vector_impl_data" }
%"struct.std::_Vector_base<const jsonnet::internal::Identifier *, std::allocator<const jsonnet::internal::Identifier *>>::_Vector_impl_data" = type { ptr, ptr, ptr }
%"struct.jsonnet::internal::Index" = type { %"struct.jsonnet::internal::AST", ptr, %"class.std::vector", i8, ptr, %"class.std::vector", ptr, %"class.std::vector", ptr, %"class.std::vector", ptr }

; Function Attrs: mustprogress uwtable
define void @_ZN7jsonnet8internal12CompilerPass5visitEPNS0_5IndexE(ptr noundef nonnull align 8 dereferenceable(16) %0, ptr noundef %1) unnamed_addr #4 align 2 {
  %3 = alloca ptr, align 8
  %4 = alloca ptr, align 8
  store ptr %0, ptr %3, align 8, !tbaa !21
  store ptr %1, ptr %4, align 8, !tbaa !145
  %5 = load ptr, ptr %3, align 8
  %6 = load ptr, ptr %4, align 8, !tbaa !145
  %7 = getelementptr inbounds nuw %"struct.jsonnet::internal::Index", ptr %6, i32 0, i32 1
  %8 = load ptr, ptr %5, align 8, !tbaa !27
  %9 = getelementptr inbounds ptr, ptr %8, i64 6
  %10 = load ptr, ptr %9, align 8
  call void %10(ptr noundef nonnull align 8 dereferenceable(16) %5, ptr noundef nonnull align 8 dereferenceable(8) %7)
  %11 = load ptr, ptr %4, align 8, !tbaa !145
  %12 = getelementptr inbounds nuw %"struct.jsonnet::internal::Index", ptr %11, i32 0, i32 10
  %13 = load ptr, ptr %12, align 8, !tbaa !147
  %14 = icmp ne ptr %13, null
  br i1 %14, label %15, label %16

15:                                               ; preds = %2
  br label %62

16:                                               ; preds = %2
  %17 = load ptr, ptr %4, align 8, !tbaa !145
  %18 = getelementptr inbounds nuw %"struct.jsonnet::internal::Index", ptr %17, i32 0, i32 3
  %19 = load i8, ptr %18, align 8, !tbaa !149, !range !77, !noundef !78
  %20 = trunc i8 %19 to i1
  br i1 %20, label %21, label %55

21:                                               ; preds = %16
  %22 = load ptr, ptr %4, align 8, !tbaa !145
  %23 = getelementptr inbounds nuw %"struct.jsonnet::internal::Index", ptr %22, i32 0, i32 4
  %24 = load ptr, ptr %23, align 8, !tbaa !150
  %25 = icmp ne ptr %24, null
  br i1 %25, label %26, label %32

26:                                               ; preds = %21
  %27 = load ptr, ptr %4, align 8, !tbaa !145
  %28 = getelementptr inbounds nuw %"struct.jsonnet::internal::Index", ptr %27, i32 0, i32 4
  %29 = load ptr, ptr %5, align 8, !tbaa !27
  %30 = getelementptr inbounds ptr, ptr %29, i64 6
  %31 = load ptr, ptr %30, align 8
  call void %31(ptr noundef nonnull align 8 dereferenceable(16) %5, ptr noundef nonnull align 8 dereferenceable(8) %28)
  br label %32

32:                                               ; preds = %26, %21
  %33 = load ptr, ptr %4, align 8, !tbaa !145
  %34 = getelementptr inbounds nuw %"struct.jsonnet::internal::Index", ptr %33, i32 0, i32 6
  %35 = load ptr, ptr %34, align 8, !tbaa !151
  %36 = icmp ne ptr %35, null
  br i1 %36, label %37, label %43

37:                                               ; preds = %32
  %38 = load ptr, ptr %4, align 8, !tbaa !145
  %39 = getelementptr inbounds nuw %"struct.jsonnet::internal::Index", ptr %38, i32 0, i32 6
  %40 = load ptr, ptr %5, align 8, !tbaa !27
  %41 = getelementptr inbounds ptr, ptr %40, i64 6
  %42 = load ptr, ptr %41, align 8
  call void %42(ptr noundef nonnull align 8 dereferenceable(16) %5, ptr noundef nonnull align 8 dereferenceable(8) %39)
  br label %43

43:                                               ; preds = %37, %32
  %44 = load ptr, ptr %4, align 8, !tbaa !145
  %45 = getelementptr inbounds nuw %"struct.jsonnet::internal::Index", ptr %44, i32 0, i32 8
  %46 = load ptr, ptr %45, align 8, !tbaa !152
  %47 = icmp ne ptr %46, null
  br i1 %47, label %48, label %54

48:                                               ; preds = %43
  %49 = load ptr, ptr %4, align 8, !tbaa !145
  %50 = getelementptr inbounds nuw %"struct.jsonnet::internal::Index", ptr %49, i32 0, i32 8
  %51 = load ptr, ptr %5, align 8, !tbaa !27
  %52 = getelementptr inbounds ptr, ptr %51, i64 6
  %53 = load ptr, ptr %52, align 8
  call void %53(ptr noundef nonnull align 8 dereferenceable(16) %5, ptr noundef nonnull align 8 dereferenceable(8) %50)
  br label %54

54:                                               ; preds = %48, %43
  br label %61

55:                                               ; preds = %16
  %56 = load ptr, ptr %4, align 8, !tbaa !145
  %57 = getelementptr inbounds nuw %"struct.jsonnet::internal::Index", ptr %56, i32 0, i32 4
  %58 = load ptr, ptr %5, align 8, !tbaa !27
  %59 = getelementptr inbounds ptr, ptr %58, i64 6
  %60 = load ptr, ptr %59, align 8
  call void %60(ptr noundef nonnull align 8 dereferenceable(16) %5, ptr noundef nonnull align 8 dereferenceable(8) %57)
  br label %61

61:                                               ; preds = %55, %54
  br label %62

62:                                               ; preds = %61, %15
  ret void
}