; Function Attrs: mustprogress uwtable
define void @_ZN7jsonnet8internal12CompilerPass5visitEPNS0_5IndexE(ptr noundef nonnull align 8 dereferenceable(16) %0, ptr noundef %1) unnamed_addr #4 align 2 {
  %3 = getelementptr inbounds nuw i8, ptr %1, i64 128
  %4 = load ptr, ptr %0, align 8, !tbaa !17
  %5 = getelementptr inbounds nuw i8, ptr %4, i64 48
  %6 = load ptr, ptr %5, align 8
  tail call void %6(ptr noundef nonnull align 8 dereferenceable(16) %0, ptr noundef nonnull align 8 dereferenceable(8) %3)
  %7 = getelementptr inbounds nuw i8, ptr %1, i64 264
  %8 = load ptr, ptr %7, align 8, !tbaa !78
  %.not = icmp eq ptr %8, null
  br i1 %.not, label %9, label %33

9:                                                ; preds = %2
  %10 = getelementptr inbounds nuw i8, ptr %1, i64 160
  %11 = load i8, ptr %10, align 8, !tbaa !80, !range !48, !noundef !49
  %12 = trunc nuw i8 %11 to i1
  %13 = getelementptr inbounds nuw i8, ptr %1, i64 168
  br i1 %12, label %14, label %.sink.split

14:                                               ; preds = %9
  %15 = load ptr, ptr %13, align 8, !tbaa !81
  %.not11 = icmp eq ptr %15, null
  br i1 %.not11, label %20, label %16

16:                                               ; preds = %14
  %17 = load ptr, ptr %0, align 8, !tbaa !17
  %18 = getelementptr inbounds nuw i8, ptr %17, i64 48
  %19 = load ptr, ptr %18, align 8
  tail call void %19(ptr noundef nonnull align 8 dereferenceable(16) %0, ptr noundef nonnull align 8 dereferenceable(8) %13)
  br label %20

20:                                               ; preds = %16, %14
  %21 = getelementptr inbounds nuw i8, ptr %1, i64 200
  %22 = load ptr, ptr %21, align 8, !tbaa !82
  %.not12 = icmp eq ptr %22, null
  br i1 %.not12, label %27, label %23

23:                                               ; preds = %20
  %24 = load ptr, ptr %0, align 8, !tbaa !17
  %25 = getelementptr inbounds nuw i8, ptr %24, i64 48
  %26 = load ptr, ptr %25, align 8
  tail call void %26(ptr noundef nonnull align 8 dereferenceable(16) %0, ptr noundef nonnull align 8 dereferenceable(8) %21)
  br label %27

27:                                               ; preds = %23, %20
  %28 = getelementptr inbounds nuw i8, ptr %1, i64 232
  %29 = load ptr, ptr %28, align 8, !tbaa !83
  %.not13 = icmp eq ptr %29, null
  br i1 %.not13, label %33, label %.sink.split

.sink.split:                                      ; preds = %9, %27
  %.sink = phi ptr [ %28, %27 ], [ %13, %9 ]
  %30 = load ptr, ptr %0, align 8, !tbaa !17
  %31 = getelementptr inbounds nuw i8, ptr %30, i64 48
  %32 = load ptr, ptr %31, align 8
  tail call void %32(ptr noundef nonnull align 8 dereferenceable(16) %0, ptr noundef nonnull align 8 dereferenceable(8) %.sink)
  br label %33

33:                                               ; preds = %.sink.split, %27, %2
  ret void
}